target datalayout = "e-m:e-p270:32:32-p271:32:32-p272:64:64-i64:64-f80:128-n8:16:32:64-S128"
target triple = "x86_64-pc-linux-gnu"

%struct.student = type { [32 x i8], i32, i32, i8, i8, i32, i32 }

@.str = private unnamed_addr constant [3 x i8] c"%d\00", align 1
@.str.1 = private unnamed_addr constant [18 x i8] c"%s %d %d %c %c %d\00", align 1
@.str.2 = private unnamed_addr constant [7 x i8] c"%s\0A%d\0A\00", align 1
@.str.3 = private unnamed_addr constant [4 x i8] c"%d\0A\00", align 1

; Function Attrs: noinline nounwind uwtable
define dso_local void @main() #0 {
  %1 = alloca i32, align 4
  %2 = alloca i8*, align 8
  %3 = alloca i64, align 8
  %4 = alloca i32, align 4
  %5 = alloca i32, align 4
  %6 = alloca i32, align 4
  %7 = call i32 (i8*, ...) @__isoc99_scanf(i8* getelementptr inbounds ([3 x i8], [3 x i8]* @.str, i64 0, i64 0), i32* %1)
  %8 = load i32, i32* %1, align 4
  %9 = zext i32 %8 to i64
  %10 = call i8* @llvm.stacksave()
  store i8* %10, i8** %2, align 8
  %11 = alloca %struct.student, i64 %9, align 16
  store i64 %9, i64* %3, align 8
  store i32 0, i32* %4, align 4
  br label %12

12:                                               ; preds = %147, %0
  %13 = load i32, i32* %4, align 4
  %14 = load i32, i32* %1, align 4
  %15 = icmp slt i32 %13, %14
  br i1 %15, label %16, label %150

16:                                               ; preds = %12
  %17 = load i32, i32* %4, align 4
  %18 = sext i32 %17 to i64
  %19 = getelementptr inbounds %struct.student, %struct.student* %11, i64 %18
  %20 = getelementptr inbounds %struct.student, %struct.student* %19, i32 0, i32 0
  %21 = getelementptr inbounds [32 x i8], [32 x i8]* %20, i64 0, i64 0
  %22 = load i32, i32* %4, align 4
  %23 = sext i32 %22 to i64
  %24 = getelementptr inbounds %struct.student, %struct.student* %11, i64 %23
  %25 = getelementptr inbounds %struct.student, %struct.student* %24, i32 0, i32 1
  %26 = load i32, i32* %4, align 4
  %27 = sext i32 %26 to i64
  %28 = getelementptr inbounds %struct.student, %struct.student* %11, i64 %27
  %29 = getelementptr inbounds %struct.student, %struct.student* %28, i32 0, i32 2
  %30 = load i32, i32* %4, align 4
  %31 = sext i32 %30 to i64
  %32 = getelementptr inbounds %struct.student, %struct.student* %11, i64 %31
  %33 = getelementptr inbounds %struct.student, %struct.student* %32, i32 0, i32 3
  %34 = load i32, i32* %4, align 4
  %35 = sext i32 %34 to i64
  %36 = getelementptr inbounds %struct.student, %struct.student* %11, i64 %35
  %37 = getelementptr inbounds %struct.student, %struct.student* %36, i32 0, i32 4
  %38 = load i32, i32* %4, align 4
  %39 = sext i32 %38 to i64
  %40 = getelementptr inbounds %struct.student, %struct.student* %11, i64 %39
  %41 = getelementptr inbounds %struct.student, %struct.student* %40, i32 0, i32 5
  %42 = call i32 (i8*, ...) @__isoc99_scanf(i8* getelementptr inbounds ([18 x i8], [18 x i8]* @.str.1, i64 0, i64 0), i8* %21, i32* %25, i32* %29, i8* %33, i8* %37, i32* %41)
  %43 = load i32, i32* %4, align 4
  %44 = sext i32 %43 to i64
  %45 = getelementptr inbounds %struct.student, %struct.student* %11, i64 %44
  %46 = getelementptr inbounds %struct.student, %struct.student* %45, i32 0, i32 6
  store i32 0, i32* %46, align 4
  %47 = load i32, i32* %4, align 4
  %48 = sext i32 %47 to i64
  %49 = getelementptr inbounds %struct.student, %struct.student* %11, i64 %48
  %50 = getelementptr inbounds %struct.student, %struct.student* %49, i32 0, i32 1
  %51 = load i32, i32* %50, align 4
  %52 = icmp sgt i32 %51, 80
  br i1 %52, label %53, label %67

53:                                               ; preds = %16
  %54 = load i32, i32* %4, align 4
  %55 = sext i32 %54 to i64
  %56 = getelementptr inbounds %struct.student, %struct.student* %11, i64 %55
  %57 = getelementptr inbounds %struct.student, %struct.student* %56, i32 0, i32 5
  %58 = load i32, i32* %57, align 4
  %59 = icmp sgt i32 %58, 0
  br i1 %59, label %60, label %67

60:                                               ; preds = %53
  %61 = load i32, i32* %4, align 4
  %62 = sext i32 %61 to i64
  %63 = getelementptr inbounds %struct.student, %struct.student* %11, i64 %62
  %64 = getelementptr inbounds %struct.student, %struct.student* %63, i32 0, i32 6
  %65 = load i32, i32* %64, align 4
  %66 = add nsw i32 %65, 8000
  store i32 %66, i32* %64, align 4
  br label %67

67:                                               ; preds = %60, %53, %16
  %68 = load i32, i32* %4, align 4
  %69 = sext i32 %68 to i64
  %70 = getelementptr inbounds %struct.student, %struct.student* %11, i64 %69
  %71 = getelementptr inbounds %struct.student, %struct.student* %70, i32 0, i32 1
  %72 = load i32, i32* %71, align 4
  %73 = icmp sgt i32 %72, 85
  br i1 %73, label %74, label %88

74:                                               ; preds = %67
  %75 = load i32, i32* %4, align 4
  %76 = sext i32 %75 to i64
  %77 = getelementptr inbounds %struct.student, %struct.student* %11, i64 %76
  %78 = getelementptr inbounds %struct.student, %struct.student* %77, i32 0, i32 2
  %79 = load i32, i32* %78, align 4
  %80 = icmp sgt i32 %79, 80
  br i1 %80, label %81, label %88

81:                                               ; preds = %74
  %82 = load i32, i32* %4, align 4
  %83 = sext i32 %82 to i64
  %84 = getelementptr inbounds %struct.student, %struct.student* %11, i64 %83
  %85 = getelementptr inbounds %struct.student, %struct.student* %84, i32 0, i32 6
  %86 = load i32, i32* %85, align 4
  %87 = add nsw i32 %86, 4000
  store i32 %87, i32* %85, align 4
  br label %88

88:                                               ; preds = %81, %74, %67
  %89 = load i32, i32* %4, align 4
  %90 = sext i32 %89 to i64
  %91 = getelementptr inbounds %struct.student, %struct.student* %11, i64 %90
  %92 = getelementptr inbounds %struct.student, %struct.student* %91, i32 0, i32 1
  %93 = load i32, i32* %92, align 4
  %94 = icmp sgt i32 %93, 90
  br i1 %94, label %95, label %102

95:                                               ; preds = %88
  %96 = load i32, i32* %4, align 4
  %97 = sext i32 %96 to i64
  %98 = getelementptr inbounds %struct.student, %struct.student* %11, i64 %97
  %99 = getelementptr inbounds %struct.student, %struct.student* %98, i32 0, i32 6
  %100 = load i32, i32* %99, align 4
  %101 = add nsw i32 %100, 2000
  store i32 %101, i32* %99, align 4
  br label %102

102:                                              ; preds = %95, %88
  %103 = load i32, i32* %4, align 4
  %104 = sext i32 %103 to i64
  %105 = getelementptr inbounds %struct.student, %struct.student* %11, i64 %104
  %106 = getelementptr inbounds %struct.student, %struct.student* %105, i32 0, i32 1
  %107 = load i32, i32* %106, align 4
  %108 = icmp sgt i32 %107, 85
  br i1 %108, label %109, label %124

109:                                              ; preds = %102
  %110 = load i32, i32* %4, align 4
  %111 = sext i32 %110 to i64
  %112 = getelementptr inbounds %struct.student, %struct.student* %11, i64 %111
  %113 = getelementptr inbounds %struct.student, %struct.student* %112, i32 0, i32 4
  %114 = load i8, i8* %113, align 1
  %115 = sext i8 %114 to i32
  %116 = icmp eq i32 %115, 89
  br i1 %116, label %117, label %124

117:                                              ; preds = %109
  %118 = load i32, i32* %4, align 4
  %119 = sext i32 %118 to i64
  %120 = getelementptr inbounds %struct.student, %struct.student* %11, i64 %119
  %121 = getelementptr inbounds %struct.student, %struct.student* %120, i32 0, i32 6
  %122 = load i32, i32* %121, align 4
  %123 = add nsw i32 %122, 1000
  store i32 %123, i32* %121, align 4
  br label %124

124:                                              ; preds = %117, %109, %102
  %125 = load i32, i32* %4, align 4
  %126 = sext i32 %125 to i64
  %127 = getelementptr inbounds %struct.student, %struct.student* %11, i64 %126
  %128 = getelementptr inbounds %struct.student, %struct.student* %127, i32 0, i32 2
  %129 = load i32, i32* %128, align 4
  %130 = icmp sgt i32 %129, 80
  br i1 %130, label %131, label %146

131:                                              ; preds = %124
  %132 = load i32, i32* %4, align 4
  %133 = sext i32 %132 to i64
  %134 = getelementptr inbounds %struct.student, %struct.student* %11, i64 %133
  %135 = getelementptr inbounds %struct.student, %struct.student* %134, i32 0, i32 3
  %136 = load i8, i8* %135, align 4
  %137 = sext i8 %136 to i32
  %138 = icmp eq i32 %137, 89
  br i1 %138, label %139, label %146

139:                                              ; preds = %131
  %140 = load i32, i32* %4, align 4
  %141 = sext i32 %140 to i64
  %142 = getelementptr inbounds %struct.student, %struct.student* %11, i64 %141
  %143 = getelementptr inbounds %struct.student, %struct.student* %142, i32 0, i32 6
  %144 = load i32, i32* %143, align 4
  %145 = add nsw i32 %144, 850
  store i32 %145, i32* %143, align 4
  br label %146

146:                                              ; preds = %139, %131, %124
  br label %147

147:                                              ; preds = %146
  %148 = load i32, i32* %4, align 4
  %149 = add nsw i32 %148, 1
  store i32 %149, i32* %4, align 4
  br label %12

150:                                              ; preds = %12
  %151 = getelementptr inbounds %struct.student, %struct.student* %11, i64 0
  %152 = getelementptr inbounds %struct.student, %struct.student* %151, i32 0, i32 6
  %153 = load i32, i32* %152, align 16
  store i32 %153, i32* %5, align 4
  store i32 0, i32* %4, align 4
  br label %154

154:                                              ; preds = %173, %150
  %155 = load i32, i32* %4, align 4
  %156 = load i32, i32* %1, align 4
  %157 = icmp slt i32 %155, %156
  br i1 %157, label %158, label %176

158:                                              ; preds = %154
  %159 = load i32, i32* %4, align 4
  %160 = sext i32 %159 to i64
  %161 = getelementptr inbounds %struct.student, %struct.student* %11, i64 %160
  %162 = getelementptr inbounds %struct.student, %struct.student* %161, i32 0, i32 6
  %163 = load i32, i32* %162, align 4
  %164 = load i32, i32* %5, align 4
  %165 = icmp sgt i32 %163, %164
  br i1 %165, label %166, label %172

166:                                              ; preds = %158
  %167 = load i32, i32* %4, align 4
  %168 = sext i32 %167 to i64
  %169 = getelementptr inbounds %struct.student, %struct.student* %11, i64 %168
  %170 = getelementptr inbounds %struct.student, %struct.student* %169, i32 0, i32 6
  %171 = load i32, i32* %170, align 4
  store i32 %171, i32* %5, align 4
  br label %172

172:                                              ; preds = %166, %158
  br label %173

173:                                              ; preds = %172
  %174 = load i32, i32* %4, align 4
  %175 = add nsw i32 %174, 1
  store i32 %175, i32* %4, align 4
  br label %154

176:                                              ; preds = %154
  store i32 0, i32* %4, align 4
  br label %177

177:                                              ; preds = %198, %176
  %178 = load i32, i32* %4, align 4
  %179 = load i32, i32* %1, align 4
  %180 = icmp slt i32 %178, %179
  br i1 %180, label %181, label %201

181:                                              ; preds = %177
  %182 = load i32, i32* %4, align 4
  %183 = sext i32 %182 to i64
  %184 = getelementptr inbounds %struct.student, %struct.student* %11, i64 %183
  %185 = getelementptr inbounds %struct.student, %struct.student* %184, i32 0, i32 6
  %186 = load i32, i32* %185, align 4
  %187 = load i32, i32* %5, align 4
  %188 = icmp eq i32 %186, %187
  br i1 %188, label %189, label %197

189:                                              ; preds = %181
  %190 = load i32, i32* %4, align 4
  %191 = sext i32 %190 to i64
  %192 = getelementptr inbounds %struct.student, %struct.student* %11, i64 %191
  %193 = getelementptr inbounds %struct.student, %struct.student* %192, i32 0, i32 0
  %194 = getelementptr inbounds [32 x i8], [32 x i8]* %193, i64 0, i64 0
  %195 = load i32, i32* %5, align 4
  %196 = call i32 (i8*, ...) @printf(i8* getelementptr inbounds ([7 x i8], [7 x i8]* @.str.2, i64 0, i64 0), i8* %194, i32 %195)
  br label %201

197:                                              ; preds = %181
  br label %198

198:                                              ; preds = %197
  %199 = load i32, i32* %4, align 4
  %200 = add nsw i32 %199, 1
  store i32 %200, i32* %4, align 4
  br label %177

201:                                              ; preds = %189, %177
  store i32 0, i32* %6, align 4
  store i32 0, i32* %4, align 4
  br label %202

202:                                              ; preds = %214, %201
  %203 = load i32, i32* %4, align 4
  %204 = load i32, i32* %1, align 4
  %205 = icmp slt i32 %203, %204
  br i1 %205, label %206, label %217

206:                                              ; preds = %202
  %207 = load i32, i32* %4, align 4
  %208 = sext i32 %207 to i64
  %209 = getelementptr inbounds %struct.student, %struct.student* %11, i64 %208
  %210 = getelementptr inbounds %struct.student, %struct.student* %209, i32 0, i32 6
  %211 = load i32, i32* %210, align 4
  %212 = load i32, i32* %6, align 4
  %213 = add nsw i32 %212, %211
  store i32 %213, i32* %6, align 4
  br label %214

214:                                              ; preds = %206
  %215 = load i32, i32* %4, align 4
  %216 = add nsw i32 %215, 1
  store i32 %216, i32* %4, align 4
  br label %202

217:                                              ; preds = %202
  %218 = load i32, i32* %6, align 4
  %219 = call i32 (i8*, ...) @printf(i8* getelementptr inbounds ([4 x i8], [4 x i8]* @.str.3, i64 0, i64 0), i32 %218)
  %220 = load i8*, i8** %2, align 8
  call void @llvm.stackrestore(i8* %220)
  ret void
}